target datalayout = "e-m:e-p270:32:32-p271:32:32-p272:64:64-i64:64-i128:128-f80:128-n8:16:32:64-S128"
target triple = "x86_64-pc-linux-gnu"

; Function Attrs: alwaysinline nounwind uwtable
define internal void @interleave_8bit(ptr noundef %0, ptr noundef %1, ptr noundef %2, i32 noundef %3, i32 noundef %4, i32 noundef %5) #4 {
  %7 = alloca ptr, align 8
  %8 = alloca ptr, align 8
  %9 = alloca ptr, align 8
  %10 = alloca i32, align 4
  %11 = alloca i32, align 4
  %12 = alloca i32, align 4
  %13 = alloca i32, align 4
  store ptr %0, ptr %7, align 8, !tbaa !48
  store ptr %1, ptr %8, align 8, !tbaa !48
  store ptr %2, ptr %9, align 8, !tbaa !48
  store i32 %3, ptr %10, align 4, !tbaa !11
  store i32 %4, ptr %11, align 4, !tbaa !11
  store i32 %5, ptr %12, align 4, !tbaa !11
  call void @llvm.lifetime.start.p0(i64 4, ptr %13) #5
  store i32 0, ptr %13, align 4, !tbaa !11
  br label %14

14:                                               ; preds = %52, %6
  %15 = load i32, ptr %13, align 4, !tbaa !11
  %16 = load i32, ptr %10, align 4, !tbaa !11
  %17 = icmp slt i32 %15, %16
  br i1 %17, label %18, label %55

18:                                               ; preds = %14
  %19 = load ptr, ptr %8, align 8, !tbaa !48
  %20 = load i32, ptr %13, align 4, !tbaa !11
  %21 = sext i32 %20 to i64
  %22 = getelementptr inbounds i16, ptr %19, i64 %21
  %23 = load i16, ptr %22, align 2, !tbaa !50
  %24 = sext i16 %23 to i32
  %25 = load i32, ptr %11, align 4, !tbaa !11
  %26 = add i32 %24, %25
  %27 = load i32, ptr %12, align 4, !tbaa !11
  %28 = ashr i32 %26, %27
  %29 = trunc i32 %28 to i16
  %30 = load ptr, ptr %7, align 8, !tbaa !48
  %31 = load i32, ptr %13, align 4, !tbaa !11
  %32 = mul nsw i32 2, %31
  %33 = sext i32 %32 to i64
  %34 = getelementptr inbounds i16, ptr %30, i64 %33
  store i16 %29, ptr %34, align 2, !tbaa !50
  %35 = load ptr, ptr %9, align 8, !tbaa !48
  %36 = load i32, ptr %13, align 4, !tbaa !11
  %37 = sext i32 %36 to i64
  %38 = getelementptr inbounds i16, ptr %35, i64 %37
  %39 = load i16, ptr %38, align 2, !tbaa !50
  %40 = sext i16 %39 to i32
  %41 = load i32, ptr %11, align 4, !tbaa !11
  %42 = add i32 %40, %41
  %43 = load i32, ptr %12, align 4, !tbaa !11
  %44 = ashr i32 %42, %43
  %45 = trunc i32 %44 to i16
  %46 = load ptr, ptr %7, align 8, !tbaa !48
  %47 = load i32, ptr %13, align 4, !tbaa !11
  %48 = mul nsw i32 2, %47
  %49 = add nsw i32 %48, 1
  %50 = sext i32 %49 to i64
  %51 = getelementptr inbounds i16, ptr %46, i64 %50
  store i16 %45, ptr %51, align 2, !tbaa !50
  br label %52

52:                                               ; preds = %18
  %53 = load i32, ptr %13, align 4, !tbaa !11
  %54 = add nsw i32 %53, 1
  store i32 %54, ptr %13, align 4, !tbaa !11
  br label %14, !llvm.loop !87

55:                                               ; preds = %14
  call void @llvm.lifetime.end.p0(i64 4, ptr %13) #5
  ret void
}

; Function Attrs: alwaysinline nounwind uwtable
define internal void @horizontal_compose_haari_8bit(ptr noundef %0, ptr noundef %1, i32 noundef %2, i32 noundef %3) #4 {
  %5 = alloca ptr, align 8
  %6 = alloca ptr, align 8
  %7 = alloca i32, align 4
  %8 = alloca i32, align 4
  %9 = alloca i32, align 4
  %10 = alloca i32, align 4
  store ptr %0, ptr %5, align 8, !tbaa !48
  store ptr %1, ptr %6, align 8, !tbaa !48
  store i32 %2, ptr %7, align 4, !tbaa !11
  store i32 %3, ptr %8, align 4, !tbaa !11
  call void @llvm.lifetime.start.p0(i64 4, ptr %9) #5
  %11 = load i32, ptr %7, align 4, !tbaa !11
  %12 = ashr i32 %11, 1
  store i32 %12, ptr %9, align 4, !tbaa !11
  call void @llvm.lifetime.start.p0(i64 4, ptr %10) #5
  store i32 0, ptr %10, align 4, !tbaa !11
  br label %13

13:                                               ; preds = %62, %4
  %14 = load i32, ptr %10, align 4, !tbaa !11
  %15 = load i32, ptr %9, align 4, !tbaa !11
  %16 = icmp slt i32 %14, %15
  br i1 %16, label %17, label %65

17:                                               ; preds = %13
  %18 = load ptr, ptr %5, align 8, !tbaa !48
  %19 = load i32, ptr %10, align 4, !tbaa !11
  %20 = sext i32 %19 to i64
  %21 = getelementptr inbounds i16, ptr %18, i64 %20
  %22 = load i16, ptr %21, align 2, !tbaa !50
  %23 = sext i16 %22 to i32
  %24 = load ptr, ptr %5, align 8, !tbaa !48
  %25 = load i32, ptr %10, align 4, !tbaa !11
  %26 = load i32, ptr %9, align 4, !tbaa !11
  %27 = add nsw i32 %25, %26
  %28 = sext i32 %27 to i64
  %29 = getelementptr inbounds i16, ptr %24, i64 %28
  %30 = load i16, ptr %29, align 2, !tbaa !50
  %31 = sext i16 %30 to i32
  %32 = add i32 %31, 1
  %33 = ashr i32 %32, 1
  %34 = sub i32 %23, %33
  %35 = trunc i32 %34 to i16
  %36 = load ptr, ptr %6, align 8, !tbaa !48
  %37 = load i32, ptr %10, align 4, !tbaa !11
  %38 = sext i32 %37 to i64
  %39 = getelementptr inbounds i16, ptr %36, i64 %38
  store i16 %35, ptr %39, align 2, !tbaa !50
  %40 = load ptr, ptr %5, align 8, !tbaa !48
  %41 = load i32, ptr %10, align 4, !tbaa !11
  %42 = load i32, ptr %9, align 4, !tbaa !11
  %43 = add nsw i32 %41, %42
  %44 = sext i32 %43 to i64
  %45 = getelementptr inbounds i16, ptr %40, i64 %44
  %46 = load i16, ptr %45, align 2, !tbaa !50
  %47 = sext i16 %46 to i32
  %48 = load ptr, ptr %6, align 8, !tbaa !48
  %49 = load i32, ptr %10, align 4, !tbaa !11
  %50 = sext i32 %49 to i64
  %51 = getelementptr inbounds i16, ptr %48, i64 %50
  %52 = load i16, ptr %51, align 2, !tbaa !50
  %53 = sext i16 %52 to i32
  %54 = add i32 %47, %53
  %55 = trunc i32 %54 to i16
  %56 = load ptr, ptr %6, align 8, !tbaa !48
  %57 = load i32, ptr %10, align 4, !tbaa !11
  %58 = load i32, ptr %9, align 4, !tbaa !11
  %59 = add nsw i32 %57, %58
  %60 = sext i32 %59 to i64
  %61 = getelementptr inbounds i16, ptr %56, i64 %60
  store i16 %55, ptr %61, align 2, !tbaa !50
  br label %62

62:                                               ; preds = %17
  %63 = load i32, ptr %10, align 4, !tbaa !11
  %64 = add nsw i32 %63, 1
  store i32 %64, ptr %10, align 4, !tbaa !11
  br label %13, !llvm.loop !88

65:                                               ; preds = %13
  %66 = load ptr, ptr %5, align 8, !tbaa !48
  %67 = load ptr, ptr %6, align 8, !tbaa !48
  %68 = load ptr, ptr %6, align 8, !tbaa !48
  %69 = load i32, ptr %9, align 4, !tbaa !11
  %70 = sext i32 %69 to i64
  %71 = getelementptr inbounds i16, ptr %68, i64 %70
  %72 = load i32, ptr %9, align 4, !tbaa !11
  %73 = load i32, ptr %8, align 4, !tbaa !11
  %74 = load i32, ptr %8, align 4, !tbaa !11
  call void @interleave_8bit(ptr noundef %66, ptr noundef %67, ptr noundef %71, i32 noundef %72, i32 noundef %73, i32 noundef %74)
  call void @llvm.lifetime.end.p0(i64 4, ptr %10) #5
  call void @llvm.lifetime.end.p0(i64 4, ptr %9) #5
  ret void
}

; Function Attrs: nounwind uwtable
define internal void @horizontal_compose_haar1i_8bit(ptr noundef %0, ptr noundef %1, i32 noundef %2) #0 {
  %4 = alloca ptr, align 8
  %5 = alloca ptr, align 8
  %6 = alloca i32, align 4
  %7 = alloca ptr, align 8
  %8 = alloca ptr, align 8
  store ptr %0, ptr %4, align 8, !tbaa !44
  store ptr %1, ptr %5, align 8, !tbaa !44
  store i32 %2, ptr %6, align 4, !tbaa !11
  call void @llvm.lifetime.start.p0(i64 8, ptr %7) #5
  %9 = load ptr, ptr %4, align 8, !tbaa !44
  store ptr %9, ptr %7, align 8, !tbaa !48
  call void @llvm.lifetime.start.p0(i64 8, ptr %8) #5
  %10 = load ptr, ptr %5, align 8, !tbaa !44
  store ptr %10, ptr %8, align 8, !tbaa !48
  %11 = load ptr, ptr %7, align 8, !tbaa !48
  %12 = load ptr, ptr %8, align 8, !tbaa !48
  %13 = load i32, ptr %6, align 4, !tbaa !11
  call void @horizontal_compose_haari_8bit(ptr noundef %11, ptr noundef %12, i32 noundef %13, i32 noundef 1)
  call void @llvm.lifetime.end.p0(i64 8, ptr %8) #5
  call void @llvm.lifetime.end.p0(i64 8, ptr %7) #5
  ret void
}