; Function Attrs: nofree norecurse nosync nounwind memory(argmem: readwrite) uwtable
define internal void @horizontal_compose_haar1i_8bit(ptr noundef captures(none) %0, ptr noundef captures(none) %1, i32 noundef %2) #3 {
  %4 = ashr i32 %2, 1
  %5 = icmp sgt i32 %4, 0
  br i1 %5, label %.lr.ph.preheader, label %horizontal_compose_haari_8bit.exit

.lr.ph.preheader:                                 ; preds = %3
  %6 = zext nneg i32 %4 to i64
  br label %.lr.ph

.lr.ph:                                           ; preds = %.lr.ph.preheader, %.lr.ph
  %indvars.iv = phi i64 [ 0, %.lr.ph.preheader ], [ %indvars.iv.next, %.lr.ph ]
  %7 = getelementptr inbounds nuw i16, ptr %0, i64 %indvars.iv
  %8 = load i16, ptr %7, align 2, !tbaa !39
  %9 = add nuw nsw i64 %indvars.iv, %6
  %10 = getelementptr inbounds nuw i16, ptr %0, i64 %9
  %11 = load i16, ptr %10, align 2, !tbaa !39
  %12 = sext i16 %11 to i32
  %13 = add nsw i32 %12, 1
  %14 = lshr i32 %13, 1
  %15 = trunc i32 %14 to i16
  %16 = sub i16 %8, %15
  %17 = getelementptr inbounds nuw i16, ptr %1, i64 %indvars.iv
  store i16 %16, ptr %17, align 2, !tbaa !39
  %18 = load i16, ptr %10, align 2, !tbaa !39
  %19 = add i16 %16, %18
  %20 = getelementptr inbounds nuw i16, ptr %1, i64 %9
  store i16 %19, ptr %20, align 2, !tbaa !39
  %indvars.iv.next = add nuw nsw i64 %indvars.iv, 1
  %exitcond.not = icmp eq i64 %indvars.iv.next, %6
  br i1 %exitcond.not, label %.lr.ph7.preheader, label %.lr.ph, !llvm.loop !52

.lr.ph7.preheader:                                ; preds = %.lr.ph
  %21 = zext nneg i32 %4 to i64
  %22 = getelementptr inbounds nuw i16, ptr %1, i64 %21
  %wide.trip.count12 = zext nneg i32 %4 to i64
  br label %.lr.ph7

.lr.ph7:                                          ; preds = %.lr.ph7.preheader, %.lr.ph7
  %indvars.iv9 = phi i64 [ 0, %.lr.ph7.preheader ], [ %indvars.iv.next10, %.lr.ph7 ]
  %23 = getelementptr inbounds nuw i16, ptr %1, i64 %indvars.iv9
  %24 = load i16, ptr %23, align 2, !tbaa !39
  %25 = sext i16 %24 to i32
  %26 = add nsw i32 %25, 1
  %27 = lshr i32 %26, 1
  %28 = trunc i32 %27 to i16
  %.idx = shl nuw nsw i64 %indvars.iv9, 2
  %29 = getelementptr inbounds nuw i8, ptr %0, i64 %.idx
  store i16 %28, ptr %29, align 2, !tbaa !39
  %30 = getelementptr inbounds nuw i16, ptr %22, i64 %indvars.iv9
  %31 = load i16, ptr %30, align 2, !tbaa !39
  %32 = sext i16 %31 to i32
  %33 = add nsw i32 %32, 1
  %34 = lshr i32 %33, 1
  %35 = trunc i32 %34 to i16
  %36 = getelementptr inbounds nuw i8, ptr %29, i64 2
  store i16 %35, ptr %36, align 2, !tbaa !39
  %indvars.iv.next10 = add nuw nsw i64 %indvars.iv9, 1
  %exitcond13.not = icmp eq i64 %indvars.iv.next10, %wide.trip.count12
  br i1 %exitcond13.not, label %horizontal_compose_haari_8bit.exit, label %.lr.ph7, !llvm.loop !47

horizontal_compose_haari_8bit.exit:               ; preds = %.lr.ph7, %3
  ret void
}